(dp0
S'tagprogress'
p1
(dp2
S'/home/boris/OldHDD/Music'
p3
(lp4
S'/home/boris/OldHDD/Music/3_Doors_Down-Greatest_Hits-Bootleg-2006-HNH'
p5
aS'/home/boris/OldHDD/Music/50 Cent - The Massacre (2005)'
p6
aS'/home/boris/OldHDD/Music/Absolute Dance Move Your Body Winter 2007/CD1'
p7
aS'/home/boris/OldHDD/Music/Alter Bridge - Blackbird'
p8
aS'/home/boris/OldHDD/Music/Arctic Monkeys-Fav Worst Nightmare[2007][CD+SkidVid+Cov]'
p9
aS'/home/boris/OldHDD/Music/Billy Talent/Albumi/2006 Billy Talent II'
p10
aS'/home/boris/OldHDD/Music/Billy Talent/Albumi/Novw'
p11
aS'/home/boris/OldHDD/Music/Blink 182/Albumi/2001 Take Off Your Pants And Jacket'
p12
aS'/home/boris/OldHDD/Music/Blink 182/Albumi/2003 Blink 182'
p13
aS'/home/boris/OldHDD/Music/Blink 182/Albumi/2005 Greatest Hits'
p14
aS'/home/boris/OldHDD/Music/Blink 182/Albumi/ostale'
p15
aS'/home/boris/OldHDD/Music/Breaking Benjamin - 3 albums - discography 2006/Breaking Benjamin - Phobia'
p16
aS'/home/boris/OldHDD/Music/Breaking Benjamin - Dear Agony'
p17
aS'/home/boris/OldHDD/Music/Breaking Benjamin - Dear Agony/Breaking Benjamin - Phobia'
p18
aS'/home/boris/OldHDD/Music/Brick By Brick'
p19
aS'/home/boris/OldHDD/Music/Cd.The.Cranberries-Greatest.Hits.2008.DeLuXe'
p20
aS'/home/boris/OldHDD/Music/Christmas songs'
p21
aS'/home/boris/OldHDD/Music/Christmas songs/Bo\xc5\xbei\xc4\x87ne Pjesme/Razni Izvo\xc4\x91aci'
p22
aS'/home/boris/OldHDD/Music/Christmas songs/Bo\xc5\xbei\xc4\x87ne Pjesme/Various'
p23
aS'/home/boris/OldHDD/Music/Christmas songs/Christmas/BOZICNE PJESME'
p24
aS'/home/boris/OldHDD/Music/Christmas songs/Christmas/BOZICNE PJESME/Bo\xc5\xbei\xc4\x87ne Pjesme/Razni Izvo\xc4\x91aci'
p25
aS'/home/boris/OldHDD/Music/Christmas songs/Christmas/BOZICNE PJESME/Bo\xc5\xbei\xc4\x87ne Pjesme/Various'
p26
aS'/home/boris/OldHDD/Music/Coldplay-X_and_Y-2005-XXL'
p27
aS'/home/boris/OldHDD/Music/Crazy Frog - crazy christmas hits'
p28
aS'/home/boris/OldHDD/Music/Disturbed - Ten Thousand Fists'
p29
aS'/home/boris/OldHDD/Music/Dj Tiesto - Perfect Remixes Vol.3 (2005) - Electronic [www.torrentazos.com]'
p30
aS'/home/boris/OldHDD/Music/EN/ROCK VA'
p31
aS'/home/boris/OldHDD/Music/EN/ROCK VA/VA-Alternative_Rock_Vol._25-3CD-2011-SOM'
p32
aS'/home/boris/OldHDD/Music/Eurovision 2006/CD1'
p33
aS'/home/boris/OldHDD/Music/Eurovision 2006/CD2'
p34
aS'/home/boris/OldHDD/Music/Extreme Behavior'
p35
aS'/home/boris/OldHDD/Music/Florence and the Machine copy/Lungs'
p36
aS'/home/boris/OldHDD/Music/George Michael - The Best Of'
p37
aS'/home/boris/OldHDD/Music/George Michael - The Best Of/CD1'
p38
aS'/home/boris/OldHDD/Music/George Michael - The Best Of/CD2'
p39
aS'/home/boris/OldHDD/Music/HR/Hladno Pivo/1997 Desetka'
p40
aS'/home/boris/OldHDD/Music/HR/Hladno Pivo/2000 Istocno od Gajnica'
p41
ass.